Certificate:
    Data:
        Version: 3 (0x2)
        Serial Number: 1 (0x1)
        Signature Algorithm: sha256WithRSAEncryption
        Issuer: C=IT, ST=AL, L=Alessandria, O=UniUPO, OU=DISIT, CN=gaborando's server uni/emailAddress=20024195@studenti.uniupo.it
        Validity
            Not Before: Dec  9 09:37:27 2019 GMT
            Not After : Dec  8 09:37:27 2020 GMT
        Subject: C=IT, ST=Alessandria, L=Alessandria, O=UniUPO, OU=DISIT, CN=gaborando's server wow/emailAddress=20024195@studenti.uniupo.it
        Subject Public Key Info:
            Public Key Algorithm: rsaEncryption
                RSA Public-Key: (2048 bit)
                Modulus:
                    00:d4:c1:a4:cf:cd:53:ae:a2:21:20:f9:c3:8f:bc:
                    10:7e:93:86:5b:d0:7e:12:43:fc:1c:61:5d:0a:25:
                    ad:74:79:40:b7:77:88:fc:3c:13:6f:a6:5a:2c:dc:
                    79:76:d9:3a:ba:a0:7e:0d:97:8c:01:e4:77:56:ad:
                    58:cc:9c:c8:f7:b0:83:fd:7d:7c:e5:4c:81:e6:91:
                    5f:28:6a:e3:82:f9:24:9f:4a:1b:0f:12:f4:90:9e:
                    0a:7a:da:fb:92:4f:d9:24:ec:f7:5a:eb:f9:e1:c2:
                    57:e8:3c:ee:0a:52:14:e3:6f:61:a5:b7:b0:da:a5:
                    68:df:fb:f9:74:a6:16:16:e6:15:15:66:02:72:30:
                    a1:fc:78:18:83:69:3c:3a:36:f3:2d:94:a2:86:ff:
                    06:55:2f:eb:b4:72:a4:ec:07:82:13:07:8c:75:b9:
                    51:3f:95:cb:52:de:1e:ac:8e:0c:01:b6:a4:02:89:
                    89:9b:a5:87:bc:51:00:e8:a8:c2:f3:65:b4:ac:77:
                    fb:ff:c2:8a:e8:6b:ae:b4:7e:2c:12:a5:53:0f:40:
                    bd:da:51:7c:e2:dd:d1:ee:70:2e:a5:54:02:e9:75:
                    d3:a5:04:4b:35:45:80:aa:df:fc:9e:30:72:bf:88:
                    6b:74:c8:59:b2:90:cf:26:c4:70:59:99:58:8d:69:
                    ac:0b
                Exponent: 65537 (0x10001)
        X509v3 extensions:
            X509v3 Basic Constraints: 
                CA:FALSE
            Netscape Comment: 
                OpenSSL Generated Certificate
            X509v3 Subject Key Identifier: 
                6D:FC:CC:C9:08:61:A2:9C:C9:7F:5C:2E:64:08:6E:41:4C:5D:B0:90
            X509v3 Authority Key Identifier: 
                keyid:87:68:78:B7:FE:CA:B3:72:63:51:D0:D6:CF:A7:CF:DA:45:C5:74:F5

    Signature Algorithm: sha256WithRSAEncryption
         92:19:22:8e:fc:dc:42:ea:32:cf:19:a8:b9:fe:d2:28:26:69:
         3e:5d:ab:20:96:e4:37:b2:85:cb:42:a2:ce:36:f8:af:bf:34:
         34:2a:41:22:ba:82:59:ce:18:21:94:86:5c:fb:eb:25:61:30:
         83:75:77:65:a0:4a:2e:96:09:1a
-----BEGIN CERTIFICATE-----
MIIDezCCAyWgAwIBAgIBATANBgkqhkiG9w0BAQsFADCBnjELMAkGA1UEBhMCSVQx
CzAJBgNVBAgMAkFMMRQwEgYDVQQHDAtBbGVzc2FuZHJpYTEPMA0GA1UECgwGVW5p
VVBPMQ4wDAYDVQQLDAVESVNJVDEfMB0GA1UEAwwWZ2Fib3JhbmRvJ3Mgc2VydmVy
IHVuaTEqMCgGCSqGSIb3DQEJARYbMjAwMjQxOTVAc3R1ZGVudGkudW5pdXBvLml0
MB4XDTE5MTIwOTA5MzcyN1oXDTIwMTIwODA5MzcyN1owgacxCzAJBgNVBAYTAklU
MRQwEgYDVQQIDAtBbGVzc2FuZHJpYTEUMBIGA1UEBwwLQWxlc3NhbmRyaWExDzAN
BgNVBAoMBlVuaVVQTzEOMAwGA1UECwwFRElTSVQxHzAdBgNVBAMMFmdhYm9yYW5k
bydzIHNlcnZlciB3b3cxKjAoBgkqhkiG9w0BCQEWGzIwMDI0MTk1QHN0dWRlbnRp
LnVuaXVwby5pdDCCASIwDQYJKoZIhvcNAQEBBQADggEPADCCAQoCggEBANTBpM/N
U66iISD5w4+8EH6ThlvQfhJD/BxhXQolrXR5QLd3iPw8E2+mWizceXbZOrqgfg2X
jAHkd1atWMycyPewg/19fOVMgeaRXyhq44L5JJ9KGw8S9JCeCnra+5JP2STs91rr
+eHCV+g87gpSFONvYaW3sNqlaN/7+XSmFhbmFRVmAnIwofx4GINpPDo28y2Uoob/
BlUv67RypOwHghMHjHW5UT+Vy1LeHqyODAG2pAKJiZulh7xRAOiowvNltKx3+//C
iuhrrrR+LBKlUw9AvdpRfOLd0e5wLqVUAul106UESzVFgKrf/J4wcr+Ia3TIWbKQ
zybEcFmZWI1prAsCAwEAAaN7MHkwCQYDVR0TBAIwADAsBglghkgBhvhCAQ0EHxYd
T3BlblNTTCBHZW5lcmF0ZWQgQ2VydGlmaWNhdGUwHQYDVR0OBBYEFG38zMkIYaKc
yX9cLmQIbkFMXbCQMB8GA1UdIwQYMBaAFIdoeLf+yrNyY1HQ1s+nz9pFxXT1MA0G
CSqGSIb3DQEBCwUAA0EAkhkijvzcQuoyzxmouf7SKCZpPl2rIJbkN7KFy0Kizjb4
r780NCpBIrqCWc4YIZSGXPvrJWEwg3V3ZaBKLpYJGg==
-----END CERTIFICATE-----
